   1              		.cpu cortex-m0
   2              		.fpu softvfp
   3              		.eabi_attribute 20, 1
   4              		.eabi_attribute 21, 1
   5              		.eabi_attribute 23, 3
   6              		.eabi_attribute 24, 1
   7              		.eabi_attribute 25, 1
   8              		.eabi_attribute 26, 1
   9              		.eabi_attribute 30, 6
  10              		.eabi_attribute 34, 0
  11              		.eabi_attribute 18, 4
  12              		.code	16
  13              		.file	"kinetis_sysinit.c"
  14              		.text
  15              	.Ltext0:
  16              		.cfi_sections	.debug_frame
  17              		.section	.text.Default_Handler,"ax",%progbits
  18              		.align	2
  19              		.global	Default_Handler
  20              		.code	16
  21              		.thumb_func
  23              	Default_Handler:
  24              	.LFB0:
  25              		.file 1 "../Project_Settings/Startup_Code/kinetis_sysinit.c"
   1:../Project_Settings/Startup_Code/kinetis_sysinit.c **** /*
   2:../Project_Settings/Startup_Code/kinetis_sysinit.c ****  *    kinetis_sysinit.c - Default init routines for Flycatcher
   3:../Project_Settings/Startup_Code/kinetis_sysinit.c ****  *                     		Kinetis ARM systems
   4:../Project_Settings/Startup_Code/kinetis_sysinit.c ****  *    Copyright © 2012 Freescale semiConductor Inc. All Rights Reserved.
   5:../Project_Settings/Startup_Code/kinetis_sysinit.c ****  */
   6:../Project_Settings/Startup_Code/kinetis_sysinit.c ****  
   7:../Project_Settings/Startup_Code/kinetis_sysinit.c **** #include "kinetis_sysinit.h"
   8:../Project_Settings/Startup_Code/kinetis_sysinit.c **** #include "derivative.h"
   9:../Project_Settings/Startup_Code/kinetis_sysinit.c **** 
  10:../Project_Settings/Startup_Code/kinetis_sysinit.c **** /**
  11:../Project_Settings/Startup_Code/kinetis_sysinit.c ****  **===========================================================================
  12:../Project_Settings/Startup_Code/kinetis_sysinit.c ****  **  External declarations
  13:../Project_Settings/Startup_Code/kinetis_sysinit.c ****  **===========================================================================
  14:../Project_Settings/Startup_Code/kinetis_sysinit.c ****  */
  15:../Project_Settings/Startup_Code/kinetis_sysinit.c **** #if __cplusplus
  16:../Project_Settings/Startup_Code/kinetis_sysinit.c **** extern "C" {
  17:../Project_Settings/Startup_Code/kinetis_sysinit.c **** #endif
  18:../Project_Settings/Startup_Code/kinetis_sysinit.c **** extern uint32_t __vector_table[];
  19:../Project_Settings/Startup_Code/kinetis_sysinit.c **** extern unsigned long _estack;
  20:../Project_Settings/Startup_Code/kinetis_sysinit.c **** extern void __thumb_startup(void);
  21:../Project_Settings/Startup_Code/kinetis_sysinit.c **** #if __cplusplus
  22:../Project_Settings/Startup_Code/kinetis_sysinit.c **** }
  23:../Project_Settings/Startup_Code/kinetis_sysinit.c **** #endif
  24:../Project_Settings/Startup_Code/kinetis_sysinit.c **** 
  25:../Project_Settings/Startup_Code/kinetis_sysinit.c **** /**
  26:../Project_Settings/Startup_Code/kinetis_sysinit.c ****  **===========================================================================
  27:../Project_Settings/Startup_Code/kinetis_sysinit.c ****  **  Default interrupt handler
  28:../Project_Settings/Startup_Code/kinetis_sysinit.c ****  **===========================================================================
  29:../Project_Settings/Startup_Code/kinetis_sysinit.c ****  */
  30:../Project_Settings/Startup_Code/kinetis_sysinit.c **** void Default_Handler()
  31:../Project_Settings/Startup_Code/kinetis_sysinit.c **** {
  26              		.loc 1 31 0
  27              		.cfi_startproc
  28 0000 80B5     		push	{r7, lr}
  29              	.LCFI0:
  30              		.cfi_def_cfa_offset 8
  31              		.cfi_offset 7, -8
  32              		.cfi_offset 14, -4
  33 0002 00AF     		add	r7, sp, #0
  34              	.LCFI1:
  35              		.cfi_def_cfa_register 7
  32:../Project_Settings/Startup_Code/kinetis_sysinit.c **** 	__asm("bkpt");
  36              		.loc 1 32 0
  37              	@ 32 "../Project_Settings/Startup_Code/kinetis_sysinit.c" 1
  38 0004 00BE     		bkpt
  39              	@ 0 "" 2
  33:../Project_Settings/Startup_Code/kinetis_sysinit.c **** }
  40              		.loc 1 33 0
  41              		.code	16
  42 0006 BD46     		mov	sp, r7
  43              		@ sp needed for prologue
  44 0008 80BD     		pop	{r7, pc}
  45              		.cfi_endproc
  46              	.LFE0:
  48              		.weak	HardFault_Handler
  49              		.thumb_set HardFault_Handler,Default_Handler
  50              		.weak	SVC_Handler
  51              		.thumb_set SVC_Handler,Default_Handler
  52              		.weak	PendSV_Handler
  53              		.thumb_set PendSV_Handler,Default_Handler
  54              		.weak	SysTick_Handler
  55              		.thumb_set SysTick_Handler,Default_Handler
  56              		.weak	DMA0_IRQHandler
  57              		.thumb_set DMA0_IRQHandler,Default_Handler
  58              		.weak	DMA1_IRQHandler
  59              		.thumb_set DMA1_IRQHandler,Default_Handler
  60              		.weak	DMA2_IRQHandler
  61              		.thumb_set DMA2_IRQHandler,Default_Handler
  62              		.weak	DMA3_IRQHandler
  63              		.thumb_set DMA3_IRQHandler,Default_Handler
  64              		.weak	MCM_IRQHandler
  65              		.thumb_set MCM_IRQHandler,Default_Handler
  66              		.weak	FTFL_IRQHandler
  67              		.thumb_set FTFL_IRQHandler,Default_Handler
  68              		.weak	PMC_IRQHandler
  69              		.thumb_set PMC_IRQHandler,Default_Handler
  70              		.weak	LLW_IRQHandler
  71              		.thumb_set LLW_IRQHandler,Default_Handler
  72              		.weak	I2C0_IRQHandler
  73              		.thumb_set I2C0_IRQHandler,Default_Handler
  74              		.weak	I2C1_IRQHandler
  75              		.thumb_set I2C1_IRQHandler,Default_Handler
  76              		.weak	SPI0_IRQHandler
  77              		.thumb_set SPI0_IRQHandler,Default_Handler
  78              		.weak	SPI1_IRQHandler
  79              		.thumb_set SPI1_IRQHandler,Default_Handler
  80              		.weak	UART0_IRQHandler
  81              		.thumb_set UART0_IRQHandler,Default_Handler
  82              		.weak	UART1_IRQHandler
  83              		.thumb_set UART1_IRQHandler,Default_Handler
  84              		.weak	UART2_IRQHandler
  85              		.thumb_set UART2_IRQHandler,Default_Handler
  86              		.weak	ADC0_IRQHandler
  87              		.thumb_set ADC0_IRQHandler,Default_Handler
  88              		.weak	CMP0_IRQHandler
  89              		.thumb_set CMP0_IRQHandler,Default_Handler
  90              		.weak	FTM0_IRQHandler
  91              		.thumb_set FTM0_IRQHandler,Default_Handler
  92              		.weak	FTM1_IRQHandler
  93              		.thumb_set FTM1_IRQHandler,Default_Handler
  94              		.weak	FTM2_IRQHandler
  95              		.thumb_set FTM2_IRQHandler,Default_Handler
  96              		.weak	RTC_Alarm_IRQHandler
  97              		.thumb_set RTC_Alarm_IRQHandler,Default_Handler
  98              		.weak	RTC_Seconds_IRQHandler
  99              		.thumb_set RTC_Seconds_IRQHandler,Default_Handler
 100              		.weak	PIT_IRQHandler
 101              		.thumb_set PIT_IRQHandler,Default_Handler
 102              		.weak	USBOTG_IRQHandler
 103              		.thumb_set USBOTG_IRQHandler,Default_Handler
 104              		.weak	DAC0_IRQHandler
 105              		.thumb_set DAC0_IRQHandler,Default_Handler
 106              		.weak	TSI0_IRQHandler
 107              		.thumb_set TSI0_IRQHandler,Default_Handler
 108              		.weak	MCG_IRQHandler
 109              		.thumb_set MCG_IRQHandler,Default_Handler
 110              		.weak	LPTimer_IRQHandler
 111              		.thumb_set LPTimer_IRQHandler,Default_Handler
 112              		.weak	PORTA_IRQHandler
 113              		.thumb_set PORTA_IRQHandler,Default_Handler
 114              		.weak	PORTD_IRQHandler
 115              		.thumb_set PORTD_IRQHandler,Default_Handler
 116              		.weak	NMI_Handler
 117              		.thumb_set NMI_Handler,Default_Handler
 118 000a C046     		.section	.text.__init_hardware,"ax",%progbits
 119              		.align	2
 120              		.global	__init_hardware
 121              		.code	16
 122              		.thumb_func
 124              	__init_hardware:
 125              	.LFB1:
  34:../Project_Settings/Startup_Code/kinetis_sysinit.c **** 
  35:../Project_Settings/Startup_Code/kinetis_sysinit.c **** /**
  36:../Project_Settings/Startup_Code/kinetis_sysinit.c ****  **===========================================================================
  37:../Project_Settings/Startup_Code/kinetis_sysinit.c ****  **  Reset handler
  38:../Project_Settings/Startup_Code/kinetis_sysinit.c ****  **===========================================================================
  39:../Project_Settings/Startup_Code/kinetis_sysinit.c ****  */
  40:../Project_Settings/Startup_Code/kinetis_sysinit.c **** void __init_hardware()
  41:../Project_Settings/Startup_Code/kinetis_sysinit.c **** {
 126              		.loc 1 41 0
 127              		.cfi_startproc
 128 0000 80B5     		push	{r7, lr}
 129              	.LCFI2:
 130              		.cfi_def_cfa_offset 8
 131              		.cfi_offset 7, -8
 132              		.cfi_offset 14, -4
 133 0002 00AF     		add	r7, sp, #0
 134              	.LCFI3:
 135              		.cfi_def_cfa_register 7
  42:../Project_Settings/Startup_Code/kinetis_sysinit.c **** 	SCB_VTOR = (uint32_t)__vector_table; /* Set the interrupt vector table position */
 136              		.loc 1 42 0
 137 0004 054A     		ldr	r2, .L3
 138 0006 0649     		ldr	r1, .L3+4
 139 0008 064B     		ldr	r3, .L3+8
 140 000a D150     		str	r1, [r2, r3]
  43:../Project_Settings/Startup_Code/kinetis_sysinit.c **** 	
  44:../Project_Settings/Startup_Code/kinetis_sysinit.c **** 	// Disable the Watchdog because it may reset the core before entering main().
  45:../Project_Settings/Startup_Code/kinetis_sysinit.c **** 	SIM_COPC = KINETIS_WDOG_DISABLED_CTRL;
 141              		.loc 1 45 0
 142 000c 064A     		ldr	r2, .L3+12
 143 000e 8823     		mov	r3, #136
 144 0010 5B01     		lsl	r3, r3, #5
 145 0012 0021     		mov	r1, #0
 146 0014 D150     		str	r1, [r2, r3]
  46:../Project_Settings/Startup_Code/kinetis_sysinit.c **** }
 147              		.loc 1 46 0
 148 0016 BD46     		mov	sp, r7
 149              		@ sp needed for prologue
 150 0018 80BD     		pop	{r7, pc}
 151              	.L4:
 152 001a C046     		.align	2
 153              	.L3:
 154 001c 00E000E0 		.word	-536813568
 155 0020 00000000 		.word	__vector_table
 156 0024 080D0000 		.word	3336
 157 0028 00700440 		.word	1074032640
 158              		.cfi_endproc
 159              	.LFE1:
 161              		.global	InterruptVector
 162              		.section	.vectortable,"a",%progbits
 163              		.align	2
 166              	InterruptVector:
 167 0000 00000000 		.word	_estack
 168 0004 00000000 		.word	__thumb_startup
 169 0008 00000000 		.word	NMI_Handler
 170 000c 00000000 		.word	HardFault_Handler
 171 0010 00000000 		.word	0
 172 0014 00000000 		.word	0
 173 0018 00000000 		.word	0
 174 001c 00000000 		.word	0
 175 0020 00000000 		.word	0
 176 0024 00000000 		.word	0
 177 0028 00000000 		.word	0
 178 002c 00000000 		.word	SVC_Handler
 179 0030 00000000 		.word	0
 180 0034 00000000 		.word	0
 181 0038 00000000 		.word	PendSV_Handler
 182 003c 00000000 		.word	SysTick_Handler
 183 0040 00000000 		.word	DMA0_IRQHandler
 184 0044 00000000 		.word	DMA1_IRQHandler
 185 0048 00000000 		.word	DMA2_IRQHandler
 186 004c 00000000 		.word	DMA3_IRQHandler
 187 0050 00000000 		.word	MCM_IRQHandler
 188 0054 00000000 		.word	FTFL_IRQHandler
 189 0058 00000000 		.word	PMC_IRQHandler
 190 005c 00000000 		.word	LLW_IRQHandler
 191 0060 00000000 		.word	I2C0_IRQHandler
 192 0064 00000000 		.word	I2C1_IRQHandler
 193 0068 00000000 		.word	SPI0_IRQHandler
 194 006c 00000000 		.word	SPI1_IRQHandler
 195 0070 00000000 		.word	UART0_IRQHandler
 196 0074 00000000 		.word	UART1_IRQHandler
 197 0078 00000000 		.word	UART2_IRQHandler
 198 007c 00000000 		.word	ADC0_IRQHandler
 199 0080 00000000 		.word	CMP0_IRQHandler
 200 0084 00000000 		.word	FTM0_IRQHandler
 201 0088 00000000 		.word	FTM1_IRQHandler
 202 008c 00000000 		.word	FTM2_IRQHandler
 203 0090 00000000 		.word	RTC_Alarm_IRQHandler
 204 0094 00000000 		.word	RTC_Seconds_IRQHandler
 205 0098 00000000 		.word	PIT_IRQHandler
 206 009c 00000000 		.word	Default_Handler
 207 00a0 00000000 		.word	USBOTG_IRQHandler
 208 00a4 00000000 		.word	DAC0_IRQHandler
 209 00a8 00000000 		.word	TSI0_IRQHandler
 210 00ac 00000000 		.word	MCG_IRQHandler
 211 00b0 00000000 		.word	LPTimer_IRQHandler
 212 00b4 00000000 		.word	Default_Handler
 213 00b8 00000000 		.word	PORTA_IRQHandler
 214 00bc 00000000 		.word	PORTD_IRQHandler
 215              		.text
 216              	.Letext0:
 217              		.file 2 "D:/UtilisateurTZ/Program Files (x86)/CodeWarrior/CW MCU v11.1/MCU/ARM_GCC_Support/ewl/EWL
 218              		.file 3 "D:/T\351l\351chargements/NXP_CUP/insa-nxpcup/code/2019-2020/periphs/test/Project_Headers/