   1              		.cpu cortex-m0
   2              		.fpu softvfp
   3              		.eabi_attribute 20, 1
   4              		.eabi_attribute 21, 1
   5              		.eabi_attribute 23, 3
   6              		.eabi_attribute 24, 1
   7              		.eabi_attribute 25, 1
   8              		.eabi_attribute 26, 1
   9              		.eabi_attribute 30, 6
  10              		.eabi_attribute 34, 0
  11              		.eabi_attribute 18, 4
  12              		.code	16
  13              		.file	"Debug.c"
  14              		.text
  15              	.Ltext0:
  16              		.cfi_sections	.debug_frame
  17              		.global	debugDisplayNbMap
  18              		.section	.rodata.debugDisplayNbMap,"a",%progbits
  19              		.align	2
  22              	debugDisplayNbMap:
  23 0000 81000000 		.word	129
  24 0004 F3000000 		.word	243
  25 0008 49000000 		.word	73
  26 000c 61000000 		.word	97
  27 0010 33000000 		.word	51
  28 0014 25000000 		.word	37
  29 0018 05000000 		.word	5
  30 001c F1000000 		.word	241
  31 0020 01000000 		.word	1
  32 0024 21000000 		.word	33
  33 0028 11000000 		.word	17
  34 002c C1000000 		.word	193
  35 0030 63000000 		.word	99
  36 0034 85000000 		.word	133
  37 0038 61000000 		.word	97
  38 003c 71000000 		.word	113
  39 0040 7F000000 		.word	127
  40              		.section	.text.debug_init,"ax",%progbits
  41              		.align	2
  42              		.global	debug_init
  43              		.code	16
  44              		.thumb_func
  46              	debug_init:
  47              	.LFB0:
  48              		.file 1 "../Sources/Debug.c"
   1:../Sources/Debug.c **** /*
   2:../Sources/Debug.c ****  * Debug.c
   3:../Sources/Debug.c ****  *
   4:../Sources/Debug.c ****  *  Created on: Nov 30, 2019
   5:../Sources/Debug.c ****  *      Author: User
   6:../Sources/Debug.c ****  */
   7:../Sources/Debug.c **** 
   8:../Sources/Debug.c **** 
   9:../Sources/Debug.c **** #include "Debug.h"
  10:../Sources/Debug.c **** 
  11:../Sources/Debug.c **** // bit order : A-G+DP, map for digits 0-9,A-F and '-' for out of range nb
  12:../Sources/Debug.c **** //											0			1			2			3			4			5			6			7			8			9			A			B			C			D			E			F			-
  13:../Sources/Debug.c **** const unsigned int debugDisplayNbMap[17]={0b10000001, 0b11110011, 0b01001001, 0b01100001, 0b0011001
  14:../Sources/Debug.c **** 
  15:../Sources/Debug.c **** void debug_init(){
  49              		.loc 1 15 0
  50              		.cfi_startproc
  51 0000 80B5     		push	{r7, lr}
  52              	.LCFI0:
  53              		.cfi_def_cfa_offset 8
  54              		.cfi_offset 7, -8
  55              		.cfi_offset 14, -4
  56 0002 00AF     		add	r7, sp, #0
  57              	.LCFI1:
  58              		.cfi_def_cfa_register 7
  16:../Sources/Debug.c **** 	SIM_SCGC5 |= SIM_SCGC5_PORTB_MASK | SIM_SCGC5_PORTC_MASK | SIM_SCGC5_PORTD_MASK | SIM_SCGC5_PORTE_
  59              		.loc 1 16 0
  60 0004 5B4A     		ldr	r2, .L2
  61 0006 5B49     		ldr	r1, .L2
  62 0008 5B4B     		ldr	r3, .L2+4
  63 000a CB58     		ldr	r3, [r1, r3]
  64 000c F821     		mov	r1, #248
  65 000e 8901     		lsl	r1, r1, #6
  66 0010 1943     		orr	r1, r3
  67 0012 594B     		ldr	r3, .L2+4
  68 0014 D150     		str	r1, [r2, r3]
  17:../Sources/Debug.c **** 	SIM_SCGC4 |= SIM_SCGC4_UART0_MASK;
  69              		.loc 1 17 0
  70 0016 574A     		ldr	r2, .L2
  71 0018 5649     		ldr	r1, .L2
  72 001a 584B     		ldr	r3, .L2+8
  73 001c CB58     		ldr	r3, [r1, r3]
  74 001e 8021     		mov	r1, #128
  75 0020 C900     		lsl	r1, r1, #3
  76 0022 1943     		orr	r1, r3
  77 0024 554B     		ldr	r3, .L2+8
  78 0026 D150     		str	r1, [r2, r3]
  18:../Sources/Debug.c **** 
  19:../Sources/Debug.c **** 	//Initialize the Red LED (PTB18)
  20:../Sources/Debug.c **** 	PORTB_PCR18 = PORT_PCR_MUX(1);
  79              		.loc 1 20 0
  80 0028 554B     		ldr	r3, .L2+12
  81 002a 8022     		mov	r2, #128
  82 002c 5200     		lsl	r2, r2, #1
  83 002e 9A64     		str	r2, [r3, #72]
  21:../Sources/Debug.c **** 	GPIOB_PSOR = DEBUG_RED_Pin;
  84              		.loc 1 21 0
  85 0030 544B     		ldr	r3, .L2+16
  86 0032 8022     		mov	r2, #128
  87 0034 D202     		lsl	r2, r2, #11
  88 0036 5A60     		str	r2, [r3, #4]
  22:../Sources/Debug.c **** 	GPIOB_PDDR |= DEBUG_RED_Pin;
  89              		.loc 1 22 0
  90 0038 524B     		ldr	r3, .L2+16
  91 003a 524A     		ldr	r2, .L2+16
  92 003c 5269     		ldr	r2, [r2, #20]
  93 003e 8021     		mov	r1, #128
  94 0040 C902     		lsl	r1, r1, #11
  95 0042 0A43     		orr	r2, r1
  96 0044 5A61     		str	r2, [r3, #20]
  23:../Sources/Debug.c **** 	//Initialize the Green LED (PTB19)
  24:../Sources/Debug.c **** 	PORTB_PCR19 = PORT_PCR_MUX(1);
  97              		.loc 1 24 0
  98 0046 4E4B     		ldr	r3, .L2+12
  99 0048 8022     		mov	r2, #128
 100 004a 5200     		lsl	r2, r2, #1
 101 004c DA64     		str	r2, [r3, #76]
  25:../Sources/Debug.c **** 	GPIOB_PSOR = DEBUG_GREEN_Pin;
 102              		.loc 1 25 0
 103 004e 4D4B     		ldr	r3, .L2+16
 104 0050 8022     		mov	r2, #128
 105 0052 1203     		lsl	r2, r2, #12
 106 0054 5A60     		str	r2, [r3, #4]
  26:../Sources/Debug.c **** 	GPIOB_PDDR |= DEBUG_GREEN_Pin;
 107              		.loc 1 26 0
 108 0056 4B4B     		ldr	r3, .L2+16
 109 0058 4A4A     		ldr	r2, .L2+16
 110 005a 5269     		ldr	r2, [r2, #20]
 111 005c 8021     		mov	r1, #128
 112 005e 0903     		lsl	r1, r1, #12
 113 0060 0A43     		orr	r2, r1
 114 0062 5A61     		str	r2, [r3, #20]
  27:../Sources/Debug.c **** 	//Initialize the Blue LED (PTD1) //WARNING : BLUE LED attached to same pin as SW_USER2
  28:../Sources/Debug.c **** 	PORTD_PCR1 = PORT_PCR_MUX(1);
 115              		.loc 1 28 0
 116 0064 484B     		ldr	r3, .L2+20
 117 0066 8022     		mov	r2, #128
 118 0068 5200     		lsl	r2, r2, #1
 119 006a 5A60     		str	r2, [r3, #4]
  29:../Sources/Debug.c **** 	GPIOD_PSOR = DEBUG_BLUE_Pin;
 120              		.loc 1 29 0
 121 006c 474B     		ldr	r3, .L2+24
 122 006e 0222     		mov	r2, #2
 123 0070 5A60     		str	r2, [r3, #4]
  30:../Sources/Debug.c **** 	GPIOD_PDDR |= DEBUG_BLUE_Pin;
 124              		.loc 1 30 0
 125 0072 464B     		ldr	r3, .L2+24
 126 0074 454A     		ldr	r2, .L2+24
 127 0076 5269     		ldr	r2, [r2, #20]
 128 0078 0221     		mov	r1, #2
 129 007a 0A43     		orr	r2, r1
 130 007c 5A61     		str	r2, [r3, #20]
  31:../Sources/Debug.c **** 
  32:../Sources/Debug.c **** 	//Initialize Debugging UART pins (PTA1 : RX and PTA2 : TX)
  33:../Sources/Debug.c **** 	PORTA_PCR1 = PORT_PCR_MUX(2);
 131              		.loc 1 33 0
 132 007e 444B     		ldr	r3, .L2+28
 133 0080 8022     		mov	r2, #128
 134 0082 9200     		lsl	r2, r2, #2
 135 0084 5A60     		str	r2, [r3, #4]
  34:../Sources/Debug.c **** 	GPIOA_PDDR |= (1<<1);	//output
 136              		.loc 1 34 0
 137 0086 434B     		ldr	r3, .L2+32
 138 0088 424A     		ldr	r2, .L2+32
 139 008a 5269     		ldr	r2, [r2, #20]
 140 008c 0221     		mov	r1, #2
 141 008e 0A43     		orr	r2, r1
 142 0090 5A61     		str	r2, [r3, #20]
  35:../Sources/Debug.c **** 	PORTA_PCR2 = PORT_PCR_MUX(2);
 143              		.loc 1 35 0
 144 0092 3F4B     		ldr	r3, .L2+28
 145 0094 8022     		mov	r2, #128
 146 0096 9200     		lsl	r2, r2, #2
 147 0098 9A60     		str	r2, [r3, #8]
  36:../Sources/Debug.c **** 	GPIOA_PDDR &=~ (1<<2);
 148              		.loc 1 36 0
 149 009a 3E4B     		ldr	r3, .L2+32
 150 009c 3D4A     		ldr	r2, .L2+32
 151 009e 5269     		ldr	r2, [r2, #20]
 152 00a0 0421     		mov	r1, #4
 153 00a2 8A43     		bic	r2, r1
 154 00a4 5A61     		str	r2, [r3, #20]
  37:../Sources/Debug.c **** 
  38:../Sources/Debug.c **** 	//PTD1 (SW_USER_2) & PTD3 (SW_USER_1)//WARNING : BLUE LED attached to same pin as SW_USER2
  39:../Sources/Debug.c **** 	PORTD_PCR1 = PORT_PCR_MUX(1);
 155              		.loc 1 39 0
 156 00a6 384B     		ldr	r3, .L2+20
 157 00a8 8022     		mov	r2, #128
 158 00aa 5200     		lsl	r2, r2, #1
 159 00ac 5A60     		str	r2, [r3, #4]
  40:../Sources/Debug.c **** 	PORTD_PCR3 = PORT_PCR_MUX(1);
 160              		.loc 1 40 0
 161 00ae 364B     		ldr	r3, .L2+20
 162 00b0 8022     		mov	r2, #128
 163 00b2 5200     		lsl	r2, r2, #1
 164 00b4 DA60     		str	r2, [r3, #12]
  41:../Sources/Debug.c **** 	GPIOD_PDDR &=~ (1<<1);
 165              		.loc 1 41 0
 166 00b6 354B     		ldr	r3, .L2+24
 167 00b8 344A     		ldr	r2, .L2+24
 168 00ba 5269     		ldr	r2, [r2, #20]
 169 00bc 0221     		mov	r1, #2
 170 00be 8A43     		bic	r2, r1
 171 00c0 5A61     		str	r2, [r3, #20]
  42:../Sources/Debug.c **** 	GPIOD_PDDR &=~ (1<<3);
 172              		.loc 1 42 0
 173 00c2 324B     		ldr	r3, .L2+24
 174 00c4 314A     		ldr	r2, .L2+24
 175 00c6 5269     		ldr	r2, [r2, #20]
 176 00c8 0821     		mov	r1, #8
 177 00ca 8A43     		bic	r2, r1
 178 00cc 5A61     		str	r2, [r3, #20]
  43:../Sources/Debug.c **** 
  44:../Sources/Debug.c **** 	//PTE2-5 : Rotary switch (2:LSB, 5:MSB);
  45:../Sources/Debug.c **** 	PORTE_PCR2 = PORT_PCR_MUX(1);
 179              		.loc 1 45 0
 180 00ce 324B     		ldr	r3, .L2+36
 181 00d0 8022     		mov	r2, #128
 182 00d2 5200     		lsl	r2, r2, #1
 183 00d4 9A60     		str	r2, [r3, #8]
  46:../Sources/Debug.c **** 	PORTE_PCR3 = PORT_PCR_MUX(1);
 184              		.loc 1 46 0
 185 00d6 304B     		ldr	r3, .L2+36
 186 00d8 8022     		mov	r2, #128
 187 00da 5200     		lsl	r2, r2, #1
 188 00dc DA60     		str	r2, [r3, #12]
  47:../Sources/Debug.c **** 	PORTE_PCR4 = PORT_PCR_MUX(1);
 189              		.loc 1 47 0
 190 00de 2E4B     		ldr	r3, .L2+36
 191 00e0 8022     		mov	r2, #128
 192 00e2 5200     		lsl	r2, r2, #1
 193 00e4 1A61     		str	r2, [r3, #16]
  48:../Sources/Debug.c **** 	PORTE_PCR5 = PORT_PCR_MUX(1);
 194              		.loc 1 48 0
 195 00e6 2C4B     		ldr	r3, .L2+36
 196 00e8 8022     		mov	r2, #128
 197 00ea 5200     		lsl	r2, r2, #1
 198 00ec 5A61     		str	r2, [r3, #20]
  49:../Sources/Debug.c **** 	GPIOE_PDDR &=~ (1<<2);
 199              		.loc 1 49 0
 200 00ee 2B4B     		ldr	r3, .L2+40
 201 00f0 2A4A     		ldr	r2, .L2+40
 202 00f2 5269     		ldr	r2, [r2, #20]
 203 00f4 0421     		mov	r1, #4
 204 00f6 8A43     		bic	r2, r1
 205 00f8 5A61     		str	r2, [r3, #20]
  50:../Sources/Debug.c **** 	GPIOE_PDDR &=~ (1<<3);
 206              		.loc 1 50 0
 207 00fa 284B     		ldr	r3, .L2+40
 208 00fc 274A     		ldr	r2, .L2+40
 209 00fe 5269     		ldr	r2, [r2, #20]
 210 0100 0821     		mov	r1, #8
 211 0102 8A43     		bic	r2, r1
 212 0104 5A61     		str	r2, [r3, #20]
  51:../Sources/Debug.c **** 	GPIOE_PDDR &=~ (1<<4);
 213              		.loc 1 51 0
 214 0106 254B     		ldr	r3, .L2+40
 215 0108 244A     		ldr	r2, .L2+40
 216 010a 5269     		ldr	r2, [r2, #20]
 217 010c 1021     		mov	r1, #16
 218 010e 8A43     		bic	r2, r1
 219 0110 5A61     		str	r2, [r3, #20]
  52:../Sources/Debug.c **** 	GPIOE_PDDR &=~ (1<<5);
 220              		.loc 1 52 0
 221 0112 224B     		ldr	r3, .L2+40
 222 0114 214A     		ldr	r2, .L2+40
 223 0116 5269     		ldr	r2, [r2, #20]
 224 0118 2021     		mov	r1, #32
 225 011a 8A43     		bic	r2, r1
 226 011c 5A61     		str	r2, [r3, #20]
  53:../Sources/Debug.c **** 
  54:../Sources/Debug.c **** 	//Display init
  55:../Sources/Debug.c **** 	PORTC_PCR5 = PORT_PCR_MUX(1);
 227              		.loc 1 55 0
 228 011e 204B     		ldr	r3, .L2+44
 229 0120 8022     		mov	r2, #128
 230 0122 5200     		lsl	r2, r2, #1
 231 0124 5A61     		str	r2, [r3, #20]
  56:../Sources/Debug.c **** 	GPIOC_PDDR |= DISP_CLK_PIN;
 232              		.loc 1 56 0
 233 0126 1F4B     		ldr	r3, .L2+48
 234 0128 1E4A     		ldr	r2, .L2+48
 235 012a 5269     		ldr	r2, [r2, #20]
 236 012c 2021     		mov	r1, #32
 237 012e 0A43     		orr	r2, r1
 238 0130 5A61     		str	r2, [r3, #20]
  57:../Sources/Debug.c **** 	PORTC_PCR6 = PORT_PCR_MUX(1);
 239              		.loc 1 57 0
 240 0132 1B4B     		ldr	r3, .L2+44
 241 0134 8022     		mov	r2, #128
 242 0136 5200     		lsl	r2, r2, #1
 243 0138 9A61     		str	r2, [r3, #24]
  58:../Sources/Debug.c **** 	GPIOC_PDDR |= DISP_SIN_PIN;
 244              		.loc 1 58 0
 245 013a 1A4B     		ldr	r3, .L2+48
 246 013c 194A     		ldr	r2, .L2+48
 247 013e 5269     		ldr	r2, [r2, #20]
 248 0140 4021     		mov	r1, #64
 249 0142 0A43     		orr	r2, r1
 250 0144 5A61     		str	r2, [r3, #20]
  59:../Sources/Debug.c **** 	PORTC_PCR10 = PORT_PCR_MUX(1);
 251              		.loc 1 59 0
 252 0146 164B     		ldr	r3, .L2+44
 253 0148 8022     		mov	r2, #128
 254 014a 5200     		lsl	r2, r2, #1
 255 014c 9A62     		str	r2, [r3, #40]
  60:../Sources/Debug.c **** 	GPIOC_PDDR |= DISP_LATCH_PIN;
 256              		.loc 1 60 0
 257 014e 154B     		ldr	r3, .L2+48
 258 0150 144A     		ldr	r2, .L2+48
 259 0152 5269     		ldr	r2, [r2, #20]
 260 0154 8021     		mov	r1, #128
 261 0156 C900     		lsl	r1, r1, #3
 262 0158 0A43     		orr	r2, r1
 263 015a 5A61     		str	r2, [r3, #20]
  61:../Sources/Debug.c **** 	DISP_CLK_OFF;
 264              		.loc 1 61 0
 265 015c 114B     		ldr	r3, .L2+48
 266 015e 2022     		mov	r2, #32
 267 0160 9A60     		str	r2, [r3, #8]
  62:../Sources/Debug.c **** 	DISP_SIN_OFF;
 268              		.loc 1 62 0
 269 0162 104B     		ldr	r3, .L2+48
 270 0164 4022     		mov	r2, #64
 271 0166 9A60     		str	r2, [r3, #8]
  63:../Sources/Debug.c **** 	DISP_LATCH_ON;
 272              		.loc 1 63 0
 273 0168 0E4B     		ldr	r3, .L2+48
 274 016a 8022     		mov	r2, #128
 275 016c D200     		lsl	r2, r2, #3
 276 016e 5A60     		str	r2, [r3, #4]
  64:../Sources/Debug.c **** }
 277              		.loc 1 64 0
 278 0170 BD46     		mov	sp, r7
 279              		@ sp needed for prologue
 280 0172 80BD     		pop	{r7, pc}
 281              	.L3:
 282              		.align	2
 283              	.L2:
 284 0174 00700440 		.word	1074032640
 285 0178 38100000 		.word	4152
 286 017c 34100000 		.word	4148
 287 0180 00A00440 		.word	1074044928
 288 0184 40F00F40 		.word	1074786368
 289 0188 00C00440 		.word	1074053120
 290 018c C0F00F40 		.word	1074786496
 291 0190 00900440 		.word	1074040832
 292 0194 00F00F40 		.word	1074786304
 293 0198 00D00440 		.word	1074057216
 294 019c 00F10F40 		.word	1074786560
 295 01a0 00B00440 		.word	1074049024
 296 01a4 80F00F40 		.word	1074786432
 297              		.cfi_endproc
 298              	.LFE0:
 300              		.section	.text.debug_getRotarySW,"ax",%progbits
 301              		.align	2
 302              		.global	debug_getRotarySW
 303              		.code	16
 304              		.thumb_func
 306              	debug_getRotarySW:
 307              	.LFB1:
  65:../Sources/Debug.c **** unsigned char debug_getRotarySW(){
 308              		.loc 1 65 0
 309              		.cfi_startproc
 310 0000 80B5     		push	{r7, lr}
 311              	.LCFI2:
 312              		.cfi_def_cfa_offset 8
 313              		.cfi_offset 7, -8
 314              		.cfi_offset 14, -4
 315 0002 00AF     		add	r7, sp, #0
 316              	.LCFI3:
 317              		.cfi_def_cfa_register 7
  66:../Sources/Debug.c **** 	//return (GPIOE_PDIR & 0x003C)>>2;
  67:../Sources/Debug.c **** 	return GPIOE_PDIR;
 318              		.loc 1 67 0
 319 0004 024B     		ldr	r3, .L6
 320 0006 1B69     		ldr	r3, [r3, #16]
 321 0008 DBB2     		uxtb	r3, r3
  68:../Sources/Debug.c **** }
 322              		.loc 1 68 0
 323 000a 181C     		mov	r0, r3
 324 000c BD46     		mov	sp, r7
 325              		@ sp needed for prologue
 326 000e 80BD     		pop	{r7, pc}
 327              	.L7:
 328              		.align	2
 329              	.L6:
 330 0010 00F10F40 		.word	1074786560
 331              		.cfi_endproc
 332              	.LFE1:
 334              		.section	.text.debug_getUserSW1,"ax",%progbits
 335              		.align	2
 336              		.global	debug_getUserSW1
 337              		.code	16
 338              		.thumb_func
 340              	debug_getUserSW1:
 341              	.LFB2:
  69:../Sources/Debug.c **** unsigned char debug_getUserSW1(void){
 342              		.loc 1 69 0
 343              		.cfi_startproc
 344 0000 80B5     		push	{r7, lr}
 345              	.LCFI4:
 346              		.cfi_def_cfa_offset 8
 347              		.cfi_offset 7, -8
 348              		.cfi_offset 14, -4
 349 0002 00AF     		add	r7, sp, #0
 350              	.LCFI5:
 351              		.cfi_def_cfa_register 7
  70:../Sources/Debug.c **** 	return !(GPIOD_PDIR & (1<<3));
 352              		.loc 1 70 0
 353 0004 044B     		ldr	r3, .L10
 354 0006 1A69     		ldr	r2, [r3, #16]
 355 0008 0823     		mov	r3, #8
 356 000a 1340     		and	r3, r2
 357 000c 5A42     		neg	r2, r3
 358 000e 5341     		adc	r3, r3, r2
 359 0010 DBB2     		uxtb	r3, r3
  71:../Sources/Debug.c **** }
 360              		.loc 1 71 0
 361 0012 181C     		mov	r0, r3
 362 0014 BD46     		mov	sp, r7
 363              		@ sp needed for prologue
 364 0016 80BD     		pop	{r7, pc}
 365              	.L11:
 366              		.align	2
 367              	.L10:
 368 0018 C0F00F40 		.word	1074786496
 369              		.cfi_endproc
 370              	.LFE2:
 372              		.section	.text.debug_getUserSW2,"ax",%progbits
 373              		.align	2
 374              		.global	debug_getUserSW2
 375              		.code	16
 376              		.thumb_func
 378              	debug_getUserSW2:
 379              	.LFB3:
  72:../Sources/Debug.c **** unsigned char debug_getUserSW2(void){
 380              		.loc 1 72 0
 381              		.cfi_startproc
 382 0000 80B5     		push	{r7, lr}
 383              	.LCFI6:
 384              		.cfi_def_cfa_offset 8
 385              		.cfi_offset 7, -8
 386              		.cfi_offset 14, -4
 387 0002 00AF     		add	r7, sp, #0
 388              	.LCFI7:
 389              		.cfi_def_cfa_register 7
  73:../Sources/Debug.c **** 	return !(GPIOD_PDIR & (1<<1));
 390              		.loc 1 73 0
 391 0004 044B     		ldr	r3, .L14
 392 0006 1A69     		ldr	r2, [r3, #16]
 393 0008 0223     		mov	r3, #2
 394 000a 1340     		and	r3, r2
 395 000c 5A42     		neg	r2, r3
 396 000e 5341     		adc	r3, r3, r2
 397 0010 DBB2     		uxtb	r3, r3
  74:../Sources/Debug.c **** }
 398              		.loc 1 74 0
 399 0012 181C     		mov	r0, r3
 400 0014 BD46     		mov	sp, r7
 401              		@ sp needed for prologue
 402 0016 80BD     		pop	{r7, pc}
 403              	.L15:
 404              		.align	2
 405              	.L14:
 406 0018 C0F00F40 		.word	1074786496
 407              		.cfi_endproc
 408              	.LFE3:
 410              		.section	.text.debug_displaySendRaw,"ax",%progbits
 411              		.align	2
 412              		.global	debug_displaySendRaw
 413              		.code	16
 414              		.thumb_func
 416              	debug_displaySendRaw:
 417              	.LFB4:
  75:../Sources/Debug.c **** 
  76:../Sources/Debug.c **** void debug_displaySendRaw(unsigned int data){
 418              		.loc 1 76 0
 419              		.cfi_startproc
 420 0000 80B5     		push	{r7, lr}
 421              	.LCFI8:
 422              		.cfi_def_cfa_offset 8
 423              		.cfi_offset 7, -8
 424              		.cfi_offset 14, -4
 425 0002 84B0     		sub	sp, sp, #16
 426              	.LCFI9:
 427              		.cfi_def_cfa_offset 24
 428 0004 00AF     		add	r7, sp, #0
 429              	.LCFI10:
 430              		.cfi_def_cfa_register 7
 431 0006 7860     		str	r0, [r7, #4]
  77:../Sources/Debug.c **** 	DISP_LATCH_OFF;
 432              		.loc 1 77 0
 433 0008 144B     		ldr	r3, .L21
 434 000a 8022     		mov	r2, #128
 435 000c D200     		lsl	r2, r2, #3
 436 000e 9A60     		str	r2, [r3, #8]
 437              	.LBB2:
  78:../Sources/Debug.c **** 	for (int i=0; i<8;i++){
 438              		.loc 1 78 0
 439 0010 0023     		mov	r3, #0
 440 0012 FB60     		str	r3, [r7, #12]
 441 0014 17E0     		b	.L17
 442              	.L20:
  79:../Sources/Debug.c **** 		if(data & (1<<i)){
 443              		.loc 1 79 0
 444 0016 0122     		mov	r2, #1
 445 0018 FB68     		ldr	r3, [r7, #12]
 446 001a 111C     		mov	r1, r2
 447 001c 9940     		lsl	r1, r1, r3
 448 001e 0B1C     		mov	r3, r1
 449 0020 7A68     		ldr	r2, [r7, #4]
 450 0022 1340     		and	r3, r2
 451 0024 03D0     		beq	.L18
  80:../Sources/Debug.c **** 			DISP_SIN_ON;
 452              		.loc 1 80 0
 453 0026 0D4B     		ldr	r3, .L21
 454 0028 4022     		mov	r2, #64
 455 002a 5A60     		str	r2, [r3, #4]
 456 002c 02E0     		b	.L19
 457              	.L18:
  81:../Sources/Debug.c **** 		}else {
  82:../Sources/Debug.c **** 			DISP_SIN_OFF;
 458              		.loc 1 82 0
 459 002e 0B4B     		ldr	r3, .L21
 460 0030 4022     		mov	r2, #64
 461 0032 9A60     		str	r2, [r3, #8]
 462              	.L19:
  83:../Sources/Debug.c **** 		}			
  84:../Sources/Debug.c **** 		DISP_CLK_ON;
 463              		.loc 1 84 0
 464 0034 094B     		ldr	r3, .L21
 465 0036 2022     		mov	r2, #32
 466 0038 5A60     		str	r2, [r3, #4]
  85:../Sources/Debug.c **** 		DISP_CLK_OFF;
 467              		.loc 1 85 0
 468 003a 084B     		ldr	r3, .L21
 469 003c 2022     		mov	r2, #32
 470 003e 9A60     		str	r2, [r3, #8]
  78:../Sources/Debug.c **** 	for (int i=0; i<8;i++){
 471              		.loc 1 78 0
 472 0040 FB68     		ldr	r3, [r7, #12]
 473 0042 0133     		add	r3, r3, #1
 474 0044 FB60     		str	r3, [r7, #12]
 475              	.L17:
  78:../Sources/Debug.c **** 	for (int i=0; i<8;i++){
 476              		.loc 1 78 0 is_stmt 0
 477 0046 FB68     		ldr	r3, [r7, #12]
 478 0048 072B     		cmp	r3, #7
 479 004a E4DD     		ble	.L20
 480              	.LBE2:
  86:../Sources/Debug.c **** 	}
  87:../Sources/Debug.c **** 	DISP_LATCH_ON;
 481              		.loc 1 87 0 is_stmt 1
 482 004c 034B     		ldr	r3, .L21
 483 004e 8022     		mov	r2, #128
 484 0050 D200     		lsl	r2, r2, #3
 485 0052 5A60     		str	r2, [r3, #4]
  88:../Sources/Debug.c **** }
 486              		.loc 1 88 0
 487 0054 BD46     		mov	sp, r7
 488 0056 04B0     		add	sp, sp, #16
 489              		@ sp needed for prologue
 490 0058 80BD     		pop	{r7, pc}
 491              	.L22:
 492 005a C046     		.align	2
 493              	.L21:
 494 005c 80F00F40 		.word	1074786432
 495              		.cfi_endproc
 496              	.LFE4:
 498              		.section	.text.debug_displaySendNb,"ax",%progbits
 499              		.align	2
 500              		.global	debug_displaySendNb
 501              		.code	16
 502              		.thumb_func
 504              	debug_displaySendNb:
 505              	.LFB5:
  89:../Sources/Debug.c **** void debug_displaySendNb(unsigned int nb){
 506              		.loc 1 89 0
 507              		.cfi_startproc
 508 0000 80B5     		push	{r7, lr}
 509              	.LCFI11:
 510              		.cfi_def_cfa_offset 8
 511              		.cfi_offset 7, -8
 512              		.cfi_offset 14, -4
 513 0002 82B0     		sub	sp, sp, #8
 514              	.LCFI12:
 515              		.cfi_def_cfa_offset 16
 516 0004 00AF     		add	r7, sp, #0
 517              	.LCFI13:
 518              		.cfi_def_cfa_register 7
 519 0006 7860     		str	r0, [r7, #4]
  90:../Sources/Debug.c **** 	debug_displaySendRaw(debugDisplayNbMap[nb>16 ? 16 : nb]);
 520              		.loc 1 90 0
 521 0008 7B68     		ldr	r3, [r7, #4]
 522 000a 102B     		cmp	r3, #16
 523 000c 00D9     		bls	.L24
 524 000e 1023     		mov	r3, #16
 525              	.L24:
 526 0010 044A     		ldr	r2, .L25
 527 0012 9B00     		lsl	r3, r3, #2
 528 0014 9B58     		ldr	r3, [r3, r2]
 529 0016 181C     		mov	r0, r3
 530 0018 FFF7FEFF 		bl	debug_displaySendRaw
  91:../Sources/Debug.c **** }
 531              		.loc 1 91 0
 532 001c BD46     		mov	sp, r7
 533 001e 02B0     		add	sp, sp, #8
 534              		@ sp needed for prologue
 535 0020 80BD     		pop	{r7, pc}
 536              	.L26:
 537 0022 C046     		.align	2
 538              	.L25:
 539 0024 00000000 		.word	debugDisplayNbMap
 540              		.cfi_endproc
 541              	.LFE5:
 543              		.text
 544              	.Letext0:
 545              		.file 2 "C:/Freescale/CW MCU v11.1/MCU/ARM_GCC_Support/ewl/EWL_C/include/cstdint"
 546              		.file 3 "D:/Documents/ecole/insa/4A/NXPCUP/insa-nxpcup/code/2019-2020/periphs/test/Project_Headers